; Function Attrs: nounwind sspstrong uwtable
define internal i64 @ossl_ec_group_set_seed(i64 noundef %0, i64 noundef %1) #0 {
  %3 = alloca i64, align 8
  store i64 %1, ptr %3, align 8, !tbaa !6
  %4 = tail call ptr @rb_check_typeddata(i64 noundef %0, ptr noundef nonnull @ossl_ec_group_type) #7
  %5 = icmp eq ptr %4, null
  br i1 %5, label %6, label %8

6:                                                ; preds = %2
  %7 = load i64, ptr @eEC_GROUP, align 8, !tbaa !6
  tail call void (i64, ptr, ...) @ossl_raise(i64 noundef %7, ptr noundef nonnull @.str.59) #9
  unreachable

8:                                                ; preds = %2
  %9 = call i64 @rb_string_value(ptr noundef nonnull %3) #7
  %10 = load i64, ptr %3, align 8, !tbaa !6
  %11 = inttoptr i64 %10 to ptr
  %12 = load i64, ptr %11, align 8, !tbaa !26, !noalias !28
  %13 = and i64 %12, 8192
  %.not.i.i = icmp eq i64 %13, 0
  %14 = getelementptr inbounds nuw i8, ptr %11, i64 24
  br i1 %.not.i.i, label %RSTRING_PTR.exit, label %15

15:                                               ; preds = %8
  %.sroa.2.0.copyload.i = load ptr, ptr %14, align 8
  br label %RSTRING_PTR.exit

RSTRING_PTR.exit:                                 ; preds = %8, %15
  %.sroa.2.0.i = phi ptr [ %.sroa.2.0.copyload.i, %15 ], [ %14, %8 ]
  %16 = getelementptr inbounds nuw i8, ptr %11, i64 16
  %17 = load i64, ptr %16, align 8, !tbaa !31
  %18 = call i64 @EC_GROUP_set_seed(ptr noundef nonnull %4, ptr noundef %.sroa.2.0.i, i64 noundef %17) #7
  %19 = load i64, ptr %3, align 8, !tbaa !6
  %20 = inttoptr i64 %19 to ptr
  %21 = getelementptr inbounds nuw i8, ptr %20, i64 16
  %22 = load i64, ptr %21, align 8, !tbaa !31
  %.not = icmp eq i64 %18, %22
  br i1 %.not, label %25, label %23

23:                                               ; preds = %RSTRING_PTR.exit
  %24 = load i64, ptr @eEC_GROUP, align 8, !tbaa !6
  call void (i64, ptr, ...) @ossl_raise(i64 noundef %24, ptr noundef nonnull @.str.92) #9
  unreachable

25:                                               ; preds = %RSTRING_PTR.exit
  ret i64 %19
}